target datalayout = "e-m:e-p270:32:32-p271:32:32-p272:64:64-i64:64-i128:128-f80:128-n8:16:32:64-S128"
target triple = "x86_64-pc-linux-gnu"

@testctx = internal global ptr null, align 8
@.str.20 = private unnamed_addr constant [37 x i8] c"../openssl/test/pkcs12_format_test.c\00", align 1
@.str.64 = private unnamed_addr constant [17 x i8] c"ERR_peek_error()\00", align 1
@.str.65 = private unnamed_addr constant [2 x i8] c"0\00", align 1
@.str.66 = private unnamed_addr constant [4 x i8] c"p12\00", align 1
@.str.67 = private unnamed_addr constant [5 x i8] c"cert\00", align 1
@.str.68 = private unnamed_addr constant [5 x i8] c"pkey\00", align 1
@.str.69 = private unnamed_addr constant [5 x i8] c"pass\00", align 1
@.str.70 = private unnamed_addr constant [4 x i8] c"bio\00", align 1
@.str.71 = private unnamed_addr constant [25 x i8] c"i2d_PKCS12_bio(bio, p12)\00", align 1
@.str.72 = private unnamed_addr constant [2 x i8] c"1\00", align 1
@.str.73 = private unnamed_addr constant [11 x i8] c"p12_parsed\00", align 1
@.str.74 = private unnamed_addr constant [67 x i8] c"PKCS12_parse(p12_parsed, \22pass\22, &pkey_parsed, &cert_parsed, NULL)\00", align 1
@.str.75 = private unnamed_addr constant [9 x i8] c"new_pass\00", align 1
@.str.76 = private unnamed_addr constant [14 x i8] c"p12_recreated\00", align 1

; Function Attrs: nounwind uwtable
define internal i32 @pkcs12_recreate_test() #0 {
  %1 = alloca i32, align 4
  %2 = alloca ptr, align 8
  %3 = alloca ptr, align 8
  %4 = alloca ptr, align 8
  %5 = alloca ptr, align 8
  %6 = alloca ptr, align 8
  %7 = alloca ptr, align 8
  %8 = alloca ptr, align 8
  %9 = alloca ptr, align 8
  %10 = alloca ptr, align 8
  %11 = alloca ptr, align 8
  call void @llvm.lifetime.start.p0(i64 4, ptr %1) #4
  store i32 0, ptr %1, align 4, !tbaa !4
  call void @llvm.lifetime.start.p0(i64 8, ptr %2) #4
  store ptr null, ptr %2, align 8, !tbaa !27
  call void @llvm.lifetime.start.p0(i64 8, ptr %3) #4
  store ptr null, ptr %3, align 8, !tbaa !27
  call void @llvm.lifetime.start.p0(i64 8, ptr %4) #4
  store ptr null, ptr %4, align 8, !tbaa !22
  call void @llvm.lifetime.start.p0(i64 8, ptr %5) #4
  store ptr null, ptr %5, align 8, !tbaa !22
  call void @llvm.lifetime.start.p0(i64 8, ptr %6) #4
  store ptr null, ptr %6, align 8, !tbaa !24
  call void @llvm.lifetime.start.p0(i64 8, ptr %7) #4
  store ptr null, ptr %7, align 8, !tbaa !24
  call void @llvm.lifetime.start.p0(i64 8, ptr %8) #4
  store ptr null, ptr %8, align 8, !tbaa !24
  call void @llvm.lifetime.start.p0(i64 8, ptr %9) #4
  store ptr @CERT1, ptr %9, align 8, !tbaa !26
  call void @llvm.lifetime.start.p0(i64 8, ptr %10) #4
  store ptr @KEY1, ptr %10, align 8, !tbaa !26
  call void @llvm.lifetime.start.p0(i64 8, ptr %11) #4
  store ptr null, ptr %11, align 8, !tbaa !29
  %12 = call ptr @d2i_X509(ptr noundef null, ptr noundef %9, i64 noundef 497)
  store ptr %12, ptr %2, align 8, !tbaa !27
  %13 = load ptr, ptr %2, align 8, !tbaa !27
  %14 = call i32 @test_ptr(ptr noundef @.str.20, i32 noundef 899, ptr noundef @.str.67, ptr noundef %13)
  %15 = icmp ne i32 %14, 0
  br i1 %15, label %17, label %16

16:                                               ; preds = %0
  br label %86

17:                                               ; preds = %0
  %18 = call ptr @d2i_AutoPrivateKey(ptr noundef null, ptr noundef %10, i64 noundef 609)
  store ptr %18, ptr %4, align 8, !tbaa !22
  %19 = load ptr, ptr %4, align 8, !tbaa !22
  %20 = call i32 @test_ptr(ptr noundef @.str.20, i32 noundef 902, ptr noundef @.str.68, ptr noundef %19)
  %21 = icmp ne i32 %20, 0
  br i1 %21, label %23, label %22

22:                                               ; preds = %17
  br label %86

23:                                               ; preds = %17
  %24 = load ptr, ptr %4, align 8, !tbaa !22
  %25 = load ptr, ptr %2, align 8, !tbaa !27
  %26 = call ptr @PKCS12_create(ptr noundef @.str.69, ptr noundef null, ptr noundef %24, ptr noundef %25, ptr noundef null, i32 noundef 427, i32 noundef 427, i32 noundef 2, i32 noundef 1, i32 noundef 0)
  store ptr %26, ptr %6, align 8, !tbaa !24
  %27 = load ptr, ptr %6, align 8, !tbaa !24
  %28 = call i32 @test_ptr(ptr noundef @.str.20, i32 noundef 906, ptr noundef @.str.66, ptr noundef %27)
  %29 = icmp ne i32 %28, 0
  br i1 %29, label %31, label %30

30:                                               ; preds = %23
  br label %86

31:                                               ; preds = %23
  %32 = call i64 @ERR_peek_error()
  %33 = trunc i64 %32 to i32
  %34 = call i32 @test_int_eq(ptr noundef @.str.20, i32 noundef 908, ptr noundef @.str.64, ptr noundef @.str.65, i32 noundef %33, i32 noundef 0)
  %35 = icmp ne i32 %34, 0
  br i1 %35, label %37, label %36

36:                                               ; preds = %31
  br label %86

37:                                               ; preds = %31
  %38 = call ptr @BIO_s_mem()
  %39 = call ptr @BIO_new(ptr noundef %38)
  store ptr %39, ptr %11, align 8, !tbaa !29
  %40 = load ptr, ptr %11, align 8, !tbaa !29
  %41 = call i32 @test_ptr(ptr noundef @.str.20, i32 noundef 912, ptr noundef @.str.70, ptr noundef %40)
  %42 = icmp ne i32 %41, 0
  br i1 %42, label %44, label %43

43:                                               ; preds = %37
  br label %86

44:                                               ; preds = %37
  %45 = load ptr, ptr %11, align 8, !tbaa !29
  %46 = load ptr, ptr %6, align 8, !tbaa !24
  %47 = call i32 @i2d_PKCS12_bio(ptr noundef %45, ptr noundef %46)
  %48 = call i32 @test_int_eq(ptr noundef @.str.20, i32 noundef 914, ptr noundef @.str.71, ptr noundef @.str.72, i32 noundef %47, i32 noundef 1)
  %49 = icmp ne i32 %48, 0
  br i1 %49, label %51, label %50

50:                                               ; preds = %44
  br label %86

51:                                               ; preds = %44
  %52 = load ptr, ptr @testctx, align 8, !tbaa !10
  %53 = call ptr @PKCS12_init_ex(i32 noundef 21, ptr noundef %52, ptr noundef null)
  store ptr %53, ptr %7, align 8, !tbaa !24
  %54 = load ptr, ptr %7, align 8, !tbaa !24
  %55 = call i32 @test_ptr(ptr noundef @.str.20, i32 noundef 917, ptr noundef @.str.73, ptr noundef %54)
  %56 = icmp ne i32 %55, 0
  br i1 %56, label %58, label %57

57:                                               ; preds = %51
  br label %86

58:                                               ; preds = %51
  %59 = load ptr, ptr %11, align 8, !tbaa !29
  %60 = call ptr @d2i_PKCS12_bio(ptr noundef %59, ptr noundef %7)
  store ptr %60, ptr %7, align 8, !tbaa !24
  %61 = load ptr, ptr %7, align 8, !tbaa !24
  %62 = call i32 @test_ptr(ptr noundef @.str.20, i32 noundef 920, ptr noundef @.str.73, ptr noundef %61)
  %63 = icmp ne i32 %62, 0
  br i1 %63, label %65, label %64

64:                                               ; preds = %58
  br label %86

65:                                               ; preds = %58
  %66 = load ptr, ptr %7, align 8, !tbaa !24
  %67 = call i32 @PKCS12_parse(ptr noundef %66, ptr noundef @.str.69, ptr noundef %5, ptr noundef %3, ptr noundef null)
  %68 = call i32 @test_int_eq(ptr noundef @.str.20, i32 noundef 923, ptr noundef @.str.74, ptr noundef @.str.72, i32 noundef %67, i32 noundef 1)
  %69 = icmp ne i32 %68, 0
  br i1 %69, label %71, label %70

70:                                               ; preds = %65
  br label %86

71:                                               ; preds = %65
  %72 = load ptr, ptr %5, align 8, !tbaa !22
  %73 = load ptr, ptr %3, align 8, !tbaa !27
  %74 = call ptr @PKCS12_create(ptr noundef @.str.75, ptr noundef null, ptr noundef %72, ptr noundef %73, ptr noundef null, i32 noundef 427, i32 noundef 427, i32 noundef 2, i32 noundef 1, i32 noundef 0)
  store ptr %74, ptr %8, align 8, !tbaa !24
  %75 = load ptr, ptr %8, align 8, !tbaa !24
  %76 = call i32 @test_ptr(ptr noundef @.str.20, i32 noundef 930, ptr noundef @.str.76, ptr noundef %75)
  %77 = icmp ne i32 %76, 0
  br i1 %77, label %79, label %78

78:                                               ; preds = %71
  br label %86

79:                                               ; preds = %71
  %80 = call i64 @ERR_peek_error()
  %81 = trunc i64 %80 to i32
  %82 = call i32 @test_int_eq(ptr noundef @.str.20, i32 noundef 932, ptr noundef @.str.64, ptr noundef @.str.65, i32 noundef %81, i32 noundef 0)
  %83 = icmp ne i32 %82, 0
  br i1 %83, label %85, label %84

84:                                               ; preds = %79
  br label %86

85:                                               ; preds = %79
  store i32 1, ptr %1, align 4, !tbaa !4
  br label %86

86:                                               ; preds = %85, %84, %78, %70, %64, %57, %50, %43, %36, %30, %22, %16
  %87 = load ptr, ptr %11, align 8, !tbaa !29
  %88 = call i32 @BIO_free(ptr noundef %87)
  %89 = load ptr, ptr %6, align 8, !tbaa !24
  call void @PKCS12_free(ptr noundef %89)
  %90 = load ptr, ptr %7, align 8, !tbaa !24
  call void @PKCS12_free(ptr noundef %90)
  %91 = load ptr, ptr %8, align 8, !tbaa !24
  call void @PKCS12_free(ptr noundef %91)
  %92 = load ptr, ptr %4, align 8, !tbaa !22
  call void @EVP_PKEY_free(ptr noundef %92)
  %93 = load ptr, ptr %5, align 8, !tbaa !22
  call void @EVP_PKEY_free(ptr noundef %93)
  %94 = load ptr, ptr %2, align 8, !tbaa !27
  call void @X509_free(ptr noundef %94)
  %95 = load ptr, ptr %3, align 8, !tbaa !27
  call void @X509_free(ptr noundef %95)
  %96 = load i32, ptr %1, align 4, !tbaa !4
  call void @llvm.lifetime.end.p0(i64 8, ptr %11) #4
  call void @llvm.lifetime.end.p0(i64 8, ptr %10) #4
  call void @llvm.lifetime.end.p0(i64 8, ptr %9) #4
  call void @llvm.lifetime.end.p0(i64 8, ptr %8) #4
  call void @llvm.lifetime.end.p0(i64 8, ptr %7) #4
  call void @llvm.lifetime.end.p0(i64 8, ptr %6) #4
  call void @llvm.lifetime.end.p0(i64 8, ptr %5) #4
  call void @llvm.lifetime.end.p0(i64 8, ptr %4) #4
  call void @llvm.lifetime.end.p0(i64 8, ptr %3) #4
  call void @llvm.lifetime.end.p0(i64 8, ptr %2) #4
  call void @llvm.lifetime.end.p0(i64 4, ptr %1) #4
  ret i32 %96
}