; Function Attrs: nounwind uwtable
define internal range(i32 0, 2) i32 @pkcs12_recreate_test() #1 {
  %1 = alloca ptr, align 8
  %2 = alloca ptr, align 8
  %3 = alloca ptr, align 8
  %4 = alloca ptr, align 8
  %5 = alloca ptr, align 8
  call void @llvm.lifetime.start.p0(i64 8, ptr nonnull %1) #4
  store ptr null, ptr %1, align 8, !tbaa !21
  call void @llvm.lifetime.start.p0(i64 8, ptr nonnull %2) #4
  store ptr null, ptr %2, align 8, !tbaa !23
  call void @llvm.lifetime.start.p0(i64 8, ptr nonnull %3) #4
  store ptr null, ptr %3, align 8, !tbaa !25
  call void @llvm.lifetime.start.p0(i64 8, ptr nonnull %4) #4
  store ptr @CERT1, ptr %4, align 8, !tbaa !20
  call void @llvm.lifetime.start.p0(i64 8, ptr nonnull %5) #4
  store ptr @KEY1, ptr %5, align 8, !tbaa !20
  %6 = call ptr @d2i_X509(ptr noundef null, ptr noundef nonnull %4, i64 noundef 497) #4
  %7 = call i32 @test_ptr(ptr noundef nonnull @.str.20, i32 noundef 899, ptr noundef nonnull @.str.67, ptr noundef %6) #4
  %.not = icmp eq i32 %7, 0
  br i1 %.not, label %45, label %8

8:                                                ; preds = %0
  %9 = call ptr @d2i_AutoPrivateKey(ptr noundef null, ptr noundef nonnull %5, i64 noundef 609) #4
  %10 = call i32 @test_ptr(ptr noundef nonnull @.str.20, i32 noundef 902, ptr noundef nonnull @.str.68, ptr noundef %9) #4
  %.not19 = icmp eq i32 %10, 0
  br i1 %.not19, label %45, label %11

11:                                               ; preds = %8
  %12 = call ptr @PKCS12_create(ptr noundef nonnull @.str.69, ptr noundef null, ptr noundef %9, ptr noundef %6, ptr noundef null, i32 noundef 427, i32 noundef 427, i32 noundef 2, i32 noundef 1, i32 noundef 0) #4
  %13 = call i32 @test_ptr(ptr noundef nonnull @.str.20, i32 noundef 906, ptr noundef nonnull @.str.66, ptr noundef %12) #4
  %.not20 = icmp eq i32 %13, 0
  br i1 %.not20, label %45, label %14

14:                                               ; preds = %11
  %15 = call i64 @ERR_peek_error() #4
  %16 = trunc i64 %15 to i32
  %17 = call i32 @test_int_eq(ptr noundef nonnull @.str.20, i32 noundef 908, ptr noundef nonnull @.str.64, ptr noundef nonnull @.str.65, i32 noundef %16, i32 noundef 0) #4
  %.not21 = icmp eq i32 %17, 0
  br i1 %.not21, label %45, label %18

18:                                               ; preds = %14
  %19 = call ptr @BIO_s_mem() #4
  %20 = call ptr @BIO_new(ptr noundef %19) #4
  %21 = call i32 @test_ptr(ptr noundef nonnull @.str.20, i32 noundef 912, ptr noundef nonnull @.str.70, ptr noundef %20) #4
  %.not22 = icmp eq i32 %21, 0
  br i1 %.not22, label %45, label %22

22:                                               ; preds = %18
  %23 = call i32 @i2d_PKCS12_bio(ptr noundef %20, ptr noundef %12) #4
  %24 = call i32 @test_int_eq(ptr noundef nonnull @.str.20, i32 noundef 914, ptr noundef nonnull @.str.71, ptr noundef nonnull @.str.72, i32 noundef %23, i32 noundef 1) #4
  %.not23 = icmp eq i32 %24, 0
  br i1 %.not23, label %45, label %25

25:                                               ; preds = %22
  %26 = load ptr, ptr @testctx, align 8, !tbaa !6
  %27 = call ptr @PKCS12_init_ex(i32 noundef 21, ptr noundef %26, ptr noundef null) #4
  store ptr %27, ptr %3, align 8, !tbaa !25
  %28 = call i32 @test_ptr(ptr noundef nonnull @.str.20, i32 noundef 917, ptr noundef nonnull @.str.73, ptr noundef %27) #4
  %.not24 = icmp eq i32 %28, 0
  br i1 %.not24, label %45, label %29

29:                                               ; preds = %25
  %30 = call ptr @d2i_PKCS12_bio(ptr noundef %20, ptr noundef nonnull %3) #4
  store ptr %30, ptr %3, align 8, !tbaa !25
  %31 = call i32 @test_ptr(ptr noundef nonnull @.str.20, i32 noundef 920, ptr noundef nonnull @.str.73, ptr noundef %30) #4
  %.not25 = icmp eq i32 %31, 0
  br i1 %.not25, label %45, label %32

32:                                               ; preds = %29
  %33 = load ptr, ptr %3, align 8, !tbaa !25
  %34 = call i32 @PKCS12_parse(ptr noundef %33, ptr noundef nonnull @.str.69, ptr noundef nonnull %2, ptr noundef nonnull %1, ptr noundef null) #4
  %35 = call i32 @test_int_eq(ptr noundef nonnull @.str.20, i32 noundef 923, ptr noundef nonnull @.str.74, ptr noundef nonnull @.str.72, i32 noundef %34, i32 noundef 1) #4
  %.not26 = icmp eq i32 %35, 0
  br i1 %.not26, label %45, label %36

36:                                               ; preds = %32
  %37 = load ptr, ptr %2, align 8, !tbaa !23
  %38 = load ptr, ptr %1, align 8, !tbaa !21
  %39 = call ptr @PKCS12_create(ptr noundef nonnull @.str.75, ptr noundef null, ptr noundef %37, ptr noundef %38, ptr noundef null, i32 noundef 427, i32 noundef 427, i32 noundef 2, i32 noundef 1, i32 noundef 0) #4
  %40 = call i32 @test_ptr(ptr noundef nonnull @.str.20, i32 noundef 930, ptr noundef nonnull @.str.76, ptr noundef %39) #4
  %.not27 = icmp eq i32 %40, 0
  br i1 %.not27, label %45, label %41

41:                                               ; preds = %36
  %42 = call i64 @ERR_peek_error() #4
  %43 = trunc i64 %42 to i32
  %44 = call i32 @test_int_eq(ptr noundef nonnull @.str.20, i32 noundef 932, ptr noundef nonnull @.str.64, ptr noundef nonnull @.str.65, i32 noundef %43, i32 noundef 0) #4
  %.not28 = icmp ne i32 %44, 0
  %spec.select = zext i1 %.not28 to i32
  br label %45

45:                                               ; preds = %41, %36, %32, %29, %25, %22, %18, %14, %11, %8, %0
  %.018 = phi i32 [ 0, %36 ], [ 0, %32 ], [ 0, %29 ], [ 0, %25 ], [ 0, %22 ], [ 0, %18 ], [ 0, %14 ], [ 0, %11 ], [ 0, %8 ], [ 0, %0 ], [ %spec.select, %41 ]
  %.017 = phi ptr [ %9, %36 ], [ %9, %32 ], [ %9, %29 ], [ %9, %25 ], [ %9, %22 ], [ %9, %18 ], [ %9, %14 ], [ %9, %11 ], [ %9, %8 ], [ null, %0 ], [ %9, %41 ]
  %.016 = phi ptr [ %12, %36 ], [ %12, %32 ], [ %12, %29 ], [ %12, %25 ], [ %12, %22 ], [ %12, %18 ], [ %12, %14 ], [ %12, %11 ], [ null, %8 ], [ null, %0 ], [ %12, %41 ]
  %.015 = phi ptr [ %39, %36 ], [ null, %32 ], [ null, %29 ], [ null, %25 ], [ null, %22 ], [ null, %18 ], [ null, %14 ], [ null, %11 ], [ null, %8 ], [ null, %0 ], [ %39, %41 ]
  %.0 = phi ptr [ %20, %36 ], [ %20, %32 ], [ %20, %29 ], [ %20, %25 ], [ %20, %22 ], [ %20, %18 ], [ null, %14 ], [ null, %11 ], [ null, %8 ], [ null, %0 ], [ %20, %41 ]
  %46 = call i32 @BIO_free(ptr noundef %.0) #4
  call void @PKCS12_free(ptr noundef %.016) #4
  %47 = load ptr, ptr %3, align 8, !tbaa !25
  call void @PKCS12_free(ptr noundef %47) #4
  call void @PKCS12_free(ptr noundef %.015) #4
  call void @EVP_PKEY_free(ptr noundef %.017) #4
  %48 = load ptr, ptr %2, align 8, !tbaa !23
  call void @EVP_PKEY_free(ptr noundef %48) #4
  call void @X509_free(ptr noundef %6) #4
  %49 = load ptr, ptr %1, align 8, !tbaa !21
  call void @X509_free(ptr noundef %49) #4
  call void @llvm.lifetime.end.p0(i64 8, ptr nonnull %5) #4
  call void @llvm.lifetime.end.p0(i64 8, ptr nonnull %4) #4
  call void @llvm.lifetime.end.p0(i64 8, ptr nonnull %3) #4
  call void @llvm.lifetime.end.p0(i64 8, ptr nonnull %2) #4
  call void @llvm.lifetime.end.p0(i64 8, ptr nonnull %1) #4
  ret i32 %.018
}